Modules list:
-------------
main.o:
    CODE              Offs=000000  Size=000360  Align=00001  Fill=0000
    RODATA            Offs=000000  Size=0001FA  Align=00001  Fill=0000
    BSS               Offs=000000  Size=00001B  Align=00001  Fill=0000
vpoke.o:
    CODE              Offs=000360  Size=00000B  Align=00001  Fill=0000
sprite.o:
    CODE              Offs=00036B  Size=000176  Align=00001  Fill=0000
calendar.o:
    CODE              Offs=0004E1  Size=00001A  Align=00001  Fill=0000
    RODATA            Offs=0001FA  Size=000072  Align=00001  Fill=0000
    DATA              Offs=000000  Size=000018  Align=00001  Fill=0000
map.o:
    CODE              Offs=0004FB  Size=000002  Align=00001  Fill=0000
/Users/rje/git/cc65/lib/cx16.lib(_cursor.o):
    BSS               Offs=00001B  Size=000001  Align=00001  Fill=0000
/Users/rje/git/cc65/lib/cx16.lib(_directerrno.o):
    CODE              Offs=0004FD  Size=000009  Align=00001  Fill=0000
/Users/rje/git/cc65/lib/cx16.lib(_file.o):
    DATA              Offs=000018  Size=00001E  Align=00001  Fill=0000
/Users/rje/git/cc65/lib/cx16.lib(_hextab.o):
    RODATA            Offs=00026C  Size=000010  Align=00001  Fill=0000
/Users/rje/git/cc65/lib/cx16.lib(_longminstr.o):
    RODATA            Offs=00027C  Size=00000C  Align=00001  Fill=0000
/Users/rje/git/cc65/lib/cx16.lib(_mappederrno.o):
    CODE              Offs=000506  Size=00000F  Align=00001  Fill=0000
/Users/rje/git/cc65/lib/cx16.lib(_oserror.o):
    BSS               Offs=00001C  Size=000001  Align=00001  Fill=0000
/Users/rje/git/cc65/lib/cx16.lib(_printf.o):
    CODE              Offs=000515  Size=0003A5  Align=00001  Fill=0000
    BSS               Offs=00001D  Size=00002B  Align=00001  Fill=0000
    DATA              Offs=000036  Size=000003  Align=00001  Fill=0000
/Users/rje/git/cc65/lib/cx16.lib(_seterrno.o):
    CODE              Offs=0008BA  Size=000009  Align=00001  Fill=0000
/Users/rje/git/cc65/lib/cx16.lib(addysp.o):
    CODE              Offs=0008C3  Size=00000E  Align=00001  Fill=0000
/Users/rje/git/cc65/lib/cx16.lib(aslax3.o):
    CODE              Offs=0008D1  Size=00000E  Align=00001  Fill=0000
/Users/rje/git/cc65/lib/cx16.lib(asrax1.o):
    CODE              Offs=0008DF  Size=00000A  Align=00001  Fill=0000
/Users/rje/git/cc65/lib/cx16.lib(asrax4.o):
    CODE              Offs=0008E9  Size=000019  Align=00001  Fill=0000
/Users/rje/git/cc65/lib/cx16.lib(axlong.o):
    CODE              Offs=000902  Size=00000D  Align=00001  Fill=0000
/Users/rje/git/cc65/lib/cx16.lib(c_bsout.o):
/Users/rje/git/cc65/lib/cx16.lib(c_load.o):
    CODE              Offs=00090F  Size=00001D  Align=00001  Fill=0000
/Users/rje/git/cc65/lib/cx16.lib(c_setlfs.o):
    CODE              Offs=00092C  Size=00000E  Align=00001  Fill=0000
/Users/rje/git/cc65/lib/cx16.lib(c_setnam.o):
    CODE              Offs=00093A  Size=000013  Align=00001  Fill=0000
/Users/rje/git/cc65/lib/cx16.lib(callmain.o):
    CODE              Offs=00094D  Size=000017  Align=00001  Fill=0000
    DATA              Offs=000039  Size=000004  Align=00001  Fill=0000
/Users/rje/git/cc65/lib/cx16.lib(cgetc.o):
    CODE              Offs=000964  Size=000064  Align=00001  Fill=0000
/Users/rje/git/cc65/lib/cx16.lib(clock.o):
    CODE              Offs=0009C8  Size=00000F  Align=00001  Fill=0000
/Users/rje/git/cc65/lib/cx16.lib(condes.o):
    CODE              Offs=0009D7  Size=00000C  Align=00001  Fill=0000
    DATA              Offs=00003D  Size=000025  Align=00001  Fill=0000
    ONCE              Offs=000000  Size=00000C  Align=00001  Fill=0000
/Users/rje/git/cc65/lib/cx16.lib(crt0.o):
    STARTUP           Offs=000000  Size=000028  Align=00001  Fill=0000
    ONCE              Offs=00000C  Size=000023  Align=00001  Fill=0000
    INIT              Offs=000000  Size=000002  Align=00001  Fill=0000
/Users/rje/git/cc65/lib/cx16.lib(ctype.o):
    RODATA            Offs=000288  Size=00008B  Align=00001  Fill=0000
/Users/rje/git/cc65/lib/cx16.lib(ctypemask.o):
    CODE              Offs=0009E3  Size=00001E  Align=00001  Fill=0000
/Users/rje/git/cc65/lib/cx16.lib(decsp4.o):
    CODE              Offs=000A01  Size=00000D  Align=00001  Fill=0000
/Users/rje/git/cc65/lib/cx16.lib(decsp6.o):
    CODE              Offs=000A0E  Size=00000D  Align=00001  Fill=0000
/Users/rje/git/cc65/lib/cx16.lib(errno.o):
    BSS               Offs=000048  Size=000002  Align=00001  Fill=0000
/Users/rje/git/cc65/lib/cx16.lib(exehdr.o):
    EXEHDR            Offs=000000  Size=00000C  Align=00001  Fill=0000
/Users/rje/git/cc65/lib/cx16.lib(filedes.o):
    CODE              Offs=000A1B  Size=00000E  Align=00001  Fill=0000
    DATA              Offs=000062  Size=000010  Align=00001  Fill=0000
/Users/rje/git/cc65/lib/cx16.lib(fwrite.o):
    CODE              Offs=000A29  Size=00007B  Align=00001  Fill=0000
    BSS               Offs=00004A  Size=000002  Align=00001  Fill=0000
/Users/rje/git/cc65/lib/cx16.lib(incax2.o):
    CODE              Offs=000AA4  Size=000007  Align=00001  Fill=0000
/Users/rje/git/cc65/lib/cx16.lib(incsp1.o):
    CODE              Offs=000AAB  Size=000007  Align=00001  Fill=0000
/Users/rje/git/cc65/lib/cx16.lib(incsp2.o):
    CODE              Offs=000AB2  Size=000015  Align=00001  Fill=0000
/Users/rje/git/cc65/lib/cx16.lib(incsp3.o):
    CODE              Offs=000AC7  Size=000005  Align=00001  Fill=0000
/Users/rje/git/cc65/lib/cx16.lib(incsp4.o):
    CODE              Offs=000ACC  Size=000005  Align=00001  Fill=0000
/Users/rje/git/cc65/lib/cx16.lib(incsp5.o):
    CODE              Offs=000AD1  Size=000005  Align=00001  Fill=0000
/Users/rje/git/cc65/lib/cx16.lib(incsp6.o):
    CODE              Offs=000AD6  Size=000005  Align=00001  Fill=0000
/Users/rje/git/cc65/lib/cx16.lib(kbhit.o):
    CODE              Offs=000ADB  Size=00000E  Align=00001  Fill=0000
/Users/rje/git/cc65/lib/cx16.lib(kernal.o):
/Users/rje/git/cc65/lib/cx16.lib(lcmp.o):
    CODE              Offs=000AE9  Size=00003B  Align=00001  Fill=0000
/Users/rje/git/cc65/lib/cx16.lib(ldai.o):
    CODE              Offs=000B24  Size=00000C  Align=00001  Fill=0000
/Users/rje/git/cc65/lib/cx16.lib(ldaxi.o):
    CODE              Offs=000B30  Size=00000D  Align=00001  Fill=0000
/Users/rje/git/cc65/lib/cx16.lib(ldaxsp.o):
    CODE              Offs=000B3D  Size=000009  Align=00001  Fill=0000
/Users/rje/git/cc65/lib/cx16.lib(ldeaxysp.o):
    CODE              Offs=000B46  Size=000013  Align=00001  Fill=0000
/Users/rje/git/cc65/lib/cx16.lib(leq.o):
    CODE              Offs=000B59  Size=000006  Align=00001  Fill=0000
/Users/rje/git/cc65/lib/cx16.lib(lneg.o):
    CODE              Offs=000B5F  Size=00001E  Align=00001  Fill=0000
/Users/rje/git/cc65/lib/cx16.lib(loadaddr.o):
    LOADADDR          Offs=000000  Size=000002  Align=00001  Fill=0000
/Users/rje/git/cc65/lib/cx16.lib(lpush.o):
    CODE              Offs=000B7D  Size=00001E  Align=00001  Fill=0000
/Users/rje/git/cc65/lib/cx16.lib(lsub.o):
    CODE              Offs=000B9B  Size=000024  Align=00001  Fill=0000
/Users/rje/git/cc65/lib/cx16.lib(ltoa.o):
    CODE              Offs=000BBF  Size=000093  Align=00001  Fill=0000
/Users/rje/git/cc65/lib/cx16.lib(makebool.o):
    CODE              Offs=000C52  Size=00002C  Align=00001  Fill=0000
/Users/rje/git/cc65/lib/cx16.lib(mul.o):
    CODE              Offs=000C7E  Size=000045  Align=00001  Fill=0000
/Users/rje/git/cc65/lib/cx16.lib(mul8.o):
    CODE              Offs=000CC3  Size=00003A  Align=00001  Fill=0000
/Users/rje/git/cc65/lib/cx16.lib(oserror.o):
    CODE              Offs=000CFD  Size=000016  Align=00001  Fill=0000
    RODATA            Offs=000313  Size=00005A  Align=00001  Fill=0000
/Users/rje/git/cc65/lib/cx16.lib(popa.o):
    CODE              Offs=000D13  Size=00000A  Align=00001  Fill=0000
/Users/rje/git/cc65/lib/cx16.lib(popptr1.o):
    CODE              Offs=000D1D  Size=00000E  Align=00001  Fill=0000
/Users/rje/git/cc65/lib/cx16.lib(printf.o):
    CODE              Offs=000D2B  Size=000033  Align=00001  Fill=0000
    BSS               Offs=00004C  Size=000001  Align=00001  Fill=0000
/Users/rje/git/cc65/lib/cx16.lib(push1.o):
    CODE              Offs=000D5E  Size=000005  Align=00001  Fill=0000
/Users/rje/git/cc65/lib/cx16.lib(pusha.o):
    CODE              Offs=000D63  Size=000016  Align=00001  Fill=0000
/Users/rje/git/cc65/lib/cx16.lib(pushax.o):
    CODE              Offs=000D79  Size=00001A  Align=00001  Fill=0000
/Users/rje/git/cc65/lib/cx16.lib(pushwsp.o):
    CODE              Offs=000D93  Size=00001C  Align=00001  Fill=0000
/Users/rje/git/cc65/lib/cx16.lib(rwcommon.o):
    CODE              Offs=000DAF  Size=00001A  Align=00001  Fill=0000
/Users/rje/git/cc65/lib/cx16.lib(sprites_enable.o):
    CODE              Offs=000DC9  Size=00001F  Align=00001  Fill=0000
/Users/rje/git/cc65/lib/cx16.lib(steaxsp.o):
    CODE              Offs=000DE8  Size=000015  Align=00001  Fill=0000
/Users/rje/git/cc65/lib/cx16.lib(strlen.o):
    CODE              Offs=000DFD  Size=000016  Align=00001  Fill=0000
/Users/rje/git/cc65/lib/cx16.lib(strlower.o):
    CODE              Offs=000E13  Size=000027  Align=00001  Fill=0000
/Users/rje/git/cc65/lib/cx16.lib(udiv.o):
    CODE              Offs=000E3A  Size=00004F  Align=00001  Fill=0000
/Users/rje/git/cc65/lib/cx16.lib(vfprintf.o):
    CODE              Offs=000E89  Size=000060  Align=00001  Fill=0000
    DATA              Offs=000072  Size=000008  Align=00001  Fill=0000
/Users/rje/git/cc65/lib/cx16.lib(write.o):
    CODE              Offs=000EE9  Size=000054  Align=00001  Fill=0000
    ONCE              Offs=00002F  Size=000011  Align=00001  Fill=0000
/Users/rje/git/cc65/lib/cx16.lib(zerobss.o):
    CODE              Offs=000F3D  Size=000023  Align=00001  Fill=0000
/Users/rje/git/cc65/lib/cx16.lib(zeropage.o):
    ZEROPAGE          Offs=000000  Size=00001A  Align=00001  Fill=0000


Segment list:
-------------
Name                   Start     End    Size  Align
----------------------------------------------------
ZEROPAGE              000022  00003B  00001A  00001
LOADADDR              0007FF  000800  000002  00001
EXEHDR                000801  00080C  00000C  00001
STARTUP               00080D  000834  000028  00001
CODE                  000835  001794  000F60  00001
RODATA                001795  001B01  00036D  00001
DATA                  001B02  001B7B  00007A  00001
INIT                  001B7C  001B7D  000002  00001
BSS                   001B7E  001BCA  00004D  00001
ONCE                  001B7E  001BC1  000044  00001


Exports list by name:
---------------------
BSOUT                     00FFD2 RLA    CHROUT                    00FFD2 RLA    
CKOUT                     00FFC9 RLA    CLRCH                     00FFCC RLA    
GETIN                     00FFE4 RLA    LOAD                      00FFD5 RLA    
OPEN                      00FFC0 RLA    RDTIM                     00FFDE RLA    
READST                    00FFB7 RLA    SETLFS                    00FFBA RLA    
SETNAM                    00FFBD RLA    SETTIM                    00FFDB RLA    
__BSS_RUN__               001B7E RLA    __BSS_SIZE__              00004D REA    
__CONSTRUCTOR_COUNT__     000002 REA    __CONSTRUCTOR_TABLE__     001BBE RLA    
__DESTRUCTOR_COUNT__      000000 REA    __DESTRUCTOR_TABLE__      001B02 RLA    
__EXEHDR__                000001 REA    __HEADER_LAST__           00080D RLA    
__HIMEM__                 009F00 REA    __LOADADDR__              000001 REA    
__MAIN_SIZE__             0096F3 REA    __MAIN_START__            00080D RLA    
__ONCE_RUN__              001B7E RLA    __STACKSIZE__             000800 REA    
__STARTUP__               000001 REA    __ctype                   001A1D RLA    
__ctypeidx                001A28 RLA    __directerrno             000D32 RLA    
__errno                   001BC6 RLA    __hextab                  001A01 RLA    
__longminstr              001A11 RLA    __mappederrno             000D3B RLA    
__oserror                 001B9A RLA    __osmaperrno              001532 RLA    
__printf                  000E3D RLA    __seterrno                0010EF RLA    
_cbm_k_bsout              00FFD2 RLA    _cbm_k_load               001144 RLA    
_cbm_k_setlfs             001161 RLA    _cbm_k_setnam             00116F RLA    
_cgetc                    001199 RLA    _clock                    001204 RLA    
_fwrite                   00125E RLA    _kbhit                    001310 RLA    
_ltoa                     00140C RLA    _main                     000B3C RLA    
_map_show                 000D31 RLA    _printf                   001560 RLA    
_sprite_define            000BA0 RLA    _sprite_pos               000C8C RLA    
_stdout                   001B34 RLA    _strlen                   001632 RLA    
_strlower                 001648 RLA    _ultoa                    00144B RLA    
_vera_sprites_enable      0015FE RLA    _vfprintf                 0016F5 RLA    
_write                    00171E RLA    addysp                    0010F9 RLA    
addysp1                   0010F8 RLA    aslax3                    001106 RLA    
asrax1                    001114 RLA    asrax4                    00111E RLA    
axlong                    001137 RLA    axulong                   00113D RLA    
booleq                    00148D RLA    callmain                  001182 RLA    
ctypemaskdirect           00121C RLA    cursor                    001B99 RLA    
decsp4                    001236 RLA    decsp6                    001243 RLA    
donelib                   00120C RLA    fdtab                     001B64 RLA    
incax2                    0012D9 RLA    incsp1                    0012E0 RLA    
incsp2                    0012EE RLA    incsp3                    0012FC RLA    
incsp4                    001301 RLA    incsp5                    001306 RLA    
incsp6                    00130B RLA    initclock                 0011FD  LAI   
initlib                   001B7E RLA    initstdout                001BAD  LAI   
ldaidx                    001359 RLA    ldax0sp                   001372 RLA    
ldaxi                     001365 RLA    ldaxidx                   001367 RLA    
ldaxysp                   001374 RLA    ldeaxysp                  00137D RLA    
mul8x16                   0014FA RLA    mul8x16a                  001504 RLA    
negeax                    001394 RLA    popa                      001548 RLA    
popax                     0012E7 RLA    popptr1                   001552 RLA    
ptr1                      00002A RLZ    ptr2                      00002C RLZ    
ptr3                      00002E RLZ    ptr4                      000030 RLZ    
push1                     001593 RLA    pusha                     00159C RLA    
pusha0                    0015B0 RLA    pushax                    0015B2 RLA    
pusheax                   0013B9 RLA    pushwysp                  0015CA RLA    
regbank                   000036 RLZ    rwcommon                  0015E4 RLA    
sp                        000022 RLZ    sreg                      000024 RLZ    
steaxysp                  00161F RLA    tmp1                      000032 RLZ    
tmp2                      000033 RLZ    toseqeax                  00138E RLA    
toslcmp                   00131E RLA    tossubeax                 0013D4 RLA    
tosudivax                 001671 RLA    tosumulax                 0014B3 RLA    
zerobss                   001772 RLA    


Exports list by value:
----------------------
__DESTRUCTOR_COUNT__      000000 REA    __STARTUP__               000001 REA    
__EXEHDR__                000001 REA    __LOADADDR__              000001 REA    
__CONSTRUCTOR_COUNT__     000002 REA    sp                        000022 RLZ    
sreg                      000024 RLZ    ptr1                      00002A RLZ    
ptr2                      00002C RLZ    ptr3                      00002E RLZ    
ptr4                      000030 RLZ    tmp1                      000032 RLZ    
tmp2                      000033 RLZ    regbank                   000036 RLZ    
__BSS_SIZE__              00004D REA    __STACKSIZE__             000800 REA    
__HEADER_LAST__           00080D RLA    __MAIN_START__            00080D RLA    
_main                     000B3C RLA    _sprite_define            000BA0 RLA    
_sprite_pos               000C8C RLA    _map_show                 000D31 RLA    
__directerrno             000D32 RLA    __mappederrno             000D3B RLA    
__printf                  000E3D RLA    __seterrno                0010EF RLA    
addysp1                   0010F8 RLA    addysp                    0010F9 RLA    
aslax3                    001106 RLA    asrax1                    001114 RLA    
asrax4                    00111E RLA    axlong                    001137 RLA    
axulong                   00113D RLA    _cbm_k_load               001144 RLA    
_cbm_k_setlfs             001161 RLA    _cbm_k_setnam             00116F RLA    
callmain                  001182 RLA    _cgetc                    001199 RLA    
initclock                 0011FD  LAI   _clock                    001204 RLA    
donelib                   00120C RLA    ctypemaskdirect           00121C RLA    
decsp4                    001236 RLA    decsp6                    001243 RLA    
_fwrite                   00125E RLA    incax2                    0012D9 RLA    
incsp1                    0012E0 RLA    popax                     0012E7 RLA    
incsp2                    0012EE RLA    incsp3                    0012FC RLA    
incsp4                    001301 RLA    incsp5                    001306 RLA    
incsp6                    00130B RLA    _kbhit                    001310 RLA    
toslcmp                   00131E RLA    ldaidx                    001359 RLA    
ldaxi                     001365 RLA    ldaxidx                   001367 RLA    
ldax0sp                   001372 RLA    ldaxysp                   001374 RLA    
ldeaxysp                  00137D RLA    toseqeax                  00138E RLA    
negeax                    001394 RLA    pusheax                   0013B9 RLA    
tossubeax                 0013D4 RLA    _ltoa                     00140C RLA    
_ultoa                    00144B RLA    booleq                    00148D RLA    
tosumulax                 0014B3 RLA    mul8x16                   0014FA RLA    
mul8x16a                  001504 RLA    __osmaperrno              001532 RLA    
popa                      001548 RLA    popptr1                   001552 RLA    
_printf                   001560 RLA    push1                     001593 RLA    
pusha                     00159C RLA    pusha0                    0015B0 RLA    
pushax                    0015B2 RLA    pushwysp                  0015CA RLA    
rwcommon                  0015E4 RLA    _vera_sprites_enable      0015FE RLA    
steaxysp                  00161F RLA    _strlen                   001632 RLA    
_strlower                 001648 RLA    tosudivax                 001671 RLA    
_vfprintf                 0016F5 RLA    _write                    00171E RLA    
zerobss                   001772 RLA    __hextab                  001A01 RLA    
__longminstr              001A11 RLA    __ctype                   001A1D RLA    
__ctypeidx                001A28 RLA    __DESTRUCTOR_TABLE__      001B02 RLA    
_stdout                   001B34 RLA    fdtab                     001B64 RLA    
__BSS_RUN__               001B7E RLA    initlib                   001B7E RLA    
__ONCE_RUN__              001B7E RLA    cursor                    001B99 RLA    
__oserror                 001B9A RLA    initstdout                001BAD  LAI   
__CONSTRUCTOR_TABLE__     001BBE RLA    __errno                   001BC6 RLA    
__MAIN_SIZE__             0096F3 REA    __HIMEM__                 009F00 REA    
READST                    00FFB7 RLA    SETLFS                    00FFBA RLA    
SETNAM                    00FFBD RLA    OPEN                      00FFC0 RLA    
CKOUT                     00FFC9 RLA    CLRCH                     00FFCC RLA    
_cbm_k_bsout              00FFD2 RLA    BSOUT                     00FFD2 RLA    
CHROUT                    00FFD2 RLA    LOAD                      00FFD5 RLA    
SETTIM                    00FFDB RLA    RDTIM                     00FFDE RLA    
GETIN                     00FFE4 RLA    


Imports list:
-------------
BSOUT (kernal.o):
    write.o                   cbm/cbm.inc:49
    c_bsout.o                 cbm/cbm.inc:49
CHROUT (kernal.o):
    crt0.o                    cx16/crt0.s:10
    c_bsout.o                 cbm/cbm.inc:50
CKOUT (kernal.o):
    write.o                   cbm/cbm.inc:45
CLRCH (kernal.o):
    write.o                   cbm/cbm.inc:46
GETIN (kernal.o):
    cgetc.o                   cx16/cgetc.s:10
LOAD (kernal.o):
    c_load.o                  cbm/cbm.inc:37
OPEN (kernal.o):
    write.o                   cbm/cbm.inc:35
RDTIM (kernal.o):
    clock.o                   cx16/clock.s:11
READST (kernal.o):
    write.o                   cbm/cbm.inc:32
SETLFS (kernal.o):
    write.o                   cbm/cbm.inc:33
    c_setlfs.o                cbm/cbm.inc:33
SETNAM (kernal.o):
    c_setnam.o                cbm/cbm.inc:34
SETTIM (kernal.o):
    clock.o                   cx16/clock.s:11
__BSS_RUN__ ([linker generated]):
    zerobss.o                 common/zerobss.s:8
__BSS_SIZE__ ([linker generated]):
    zerobss.o                 common/zerobss.s:8
__CONSTRUCTOR_COUNT__ ([linker generated]):
    condes.o                  runtime/condes.s:18
__CONSTRUCTOR_TABLE__ ([linker generated]):
    condes.o                  runtime/condes.s:18
__DESTRUCTOR_COUNT__ ([linker generated]):
    condes.o                  runtime/condes.s:19
__DESTRUCTOR_TABLE__ ([linker generated]):
    condes.o                  runtime/condes.s:19
__EXEHDR__ (exehdr.o):
    [linker generated]        /Users/rje/git/cc65/cfg/cx16.cfg:6
__HEADER_LAST__ ([linker generated]):
    [linker generated]        /Users/rje/git/cc65/cfg/cx16.cfg:14
    [linker generated]        /Users/rje/git/cc65/cfg/cx16.cfg:14
__HIMEM__ ([linker generated]):
    [linker generated]        /Users/rje/git/cc65/cfg/cx16.cfg:15
    [linker generated]        /Users/rje/git/cc65/cfg/cx16.cfg:14
__LOADADDR__ (loadaddr.o):
    [linker generated]        /Users/rje/git/cc65/cfg/cx16.cfg:5
__MAIN_SIZE__ ([linker generated]):
    crt0.o                    cx16/crt0.s:11
__MAIN_START__ ([linker generated]):
    crt0.o                    cx16/crt0.s:11
__ONCE_RUN__ ([linker generated]):
    [linker generated]        /Users/rje/git/cc65/cfg/cx16.cfg:15
    [linker generated]        /Users/rje/git/cc65/cfg/cx16.cfg:15
__STACKSIZE__ ([linker generated]):
    [linker generated]        /Users/rje/git/cc65/cfg/cx16.cfg:15
__STARTUP__ (crt0.o):
    main.o                    main.s:13
__ctype (ctype.o):
    ctypemask.o               common/ctypemask.s:23
__ctypeidx (ctype.o):
    ctypemask.o               common/ctypemask.s:24
__directerrno (_directerrno.o):
    write.o                   /Users/rje/git/cc65/asminc/errno.inc:10
__errno (errno.o):
    _seterrno.o               /Users/rje/git/cc65/asminc/errno.inc:7
__hextab (_hextab.o):
    ltoa.o                    common/ltoa.s:10
__longminstr (_longminstr.o):
    ltoa.o                    common/ltoa.s:10
__mappederrno (_mappederrno.o):
    write.o                   /Users/rje/git/cc65/asminc/errno.inc:10
__oserror (_oserror.o):
    _mappederrno.o            /Users/rje/git/cc65/asminc/errno.inc:7
    _directerrno.o            /Users/rje/git/cc65/asminc/errno.inc:7
    write.o                   /Users/rje/git/cc65/asminc/errno.inc:7
    c_load.o                  cbm/c_load.s:10
__osmaperrno (oserror.o):
    _mappederrno.o            /Users/rje/git/cc65/asminc/errno.inc:8
__printf (_printf.o):
    vfprintf.o                common/vfprintf.s:10
__seterrno (_seterrno.o):
    _mappederrno.o            /Users/rje/git/cc65/asminc/errno.inc:9
    _directerrno.o            /Users/rje/git/cc65/asminc/errno.inc:9
    fwrite.o                  /Users/rje/git/cc65/asminc/errno.inc:9
_cbm_k_bsout (c_bsout.o):
    main.o                    main.s:16
_cbm_k_load (c_load.o):
    main.o                    main.s:17
_cbm_k_setlfs (c_setlfs.o):
    main.o                    main.s:18
_cbm_k_setnam (c_setnam.o):
    main.o                    main.s:19
_cgetc (cgetc.o):
    main.o                    main.s:21
_clock (clock.o):
    main.o                    main.s:22
_fwrite (fwrite.o):
    vfprintf.o                common/vfprintf.s:10
_kbhit (kbhit.o):
    cgetc.o                   cx16/cgetc.s:10
    main.o                    main.s:20
_ltoa (ltoa.o):
    _printf.o                 common/_printf.s:12
_main (main.o):
    callmain.o                runtime/callmain.s:11
_map_show (map.o):
    main.o                    main.s:25
_printf (printf.o):
    main.o                    main.s:14
_sprite_define (sprite.o):
    main.o                    main.s:23
_sprite_pos (sprite.o):
    main.o                    main.s:24
_stdout (_file.o):
    printf.o                  common/printf.s:8
_strlen (strlen.o):
    _printf.o                 common/_printf.s:13
_strlower (strlower.o):
    _printf.o                 common/_printf.s:13
_ultoa (ltoa.o):
    _printf.o                 common/_printf.s:12
_vera_sprites_enable (sprites_enable.o):
    main.o                    main.s:15
_vfprintf (vfprintf.o):
    printf.o                  common/printf.s:8
_write (write.o):
    fwrite.o                  common/fwrite.s:10
addysp (addysp.o):
    incsp6.o                  runtime/incsp6.s:8
    fwrite.o                  common/fwrite.s:11
    printf.o                  common/printf.s:8
    incsp5.o                  runtime/incsp5.s:8
    incsp4.o                  runtime/incsp4.s:8
    incsp3.o                  runtime/incsp3.s:8
addysp1 (addysp.o):
    lsub.o                    runtime/lsub.s:11
aslax3 (aslax3.o):
    sprite.o                  sprite.s:214
    sprite.o                  sprite.s:214
asrax1 (asrax1.o):
    sprite.o                  sprite.s:214
    sprite.o                  sprite.s:214
asrax4 (asrax4.o):
    sprite.o                  sprite.s:214
    sprite.o                  sprite.s:214
axlong (axlong.o):
    _printf.o                 common/_printf.s:11
axulong (axlong.o):
    _printf.o                 common/_printf.s:11
booleq (makebool.o):
    leq.o                     runtime/leq.s:8
callmain (callmain.o):
    crt0.o                    cx16/crt0.s:9
ctypemaskdirect (ctypemask.o):
    strlower.o                common/strlower.s:14
cursor (_cursor.o):
    cgetc.o                   cx16/cgetc.s:10
decsp4 (decsp4.o):
    lpush.o                   runtime/lpush.s:12
decsp6 (decsp6.o):
    _printf.o                 common/_printf.s:11
donelib (condes.o):
    crt0.o                    cx16/crt0.s:8
fdtab (filedes.o):
    write.o                   cbm/filedes.inc:7
incax2 (incax2.o):
    sprite.o                  sprite.s:214
incsp1 (incsp1.o):
    calendar.o                calendar.s:86
    vpoke.o                   vpoke.s:31
incsp2 (incsp2.o):
    popptr1.o                 runtime/popptr1.s:8
incsp3 (incsp3.o):
    sprite.o                  sprite.s:214
incsp4 (incsp4.o):
    lcmp.o                    runtime/lcmp.s:9
    main.o                    main.s:559
incsp5 (incsp5.o):
    sprite.o                  sprite.s:214
    main.o                    main.s:559
incsp6 (incsp6.o):
    fwrite.o                  common/fwrite.s:11
    vfprintf.o                common/vfprintf.s:9
initlib (condes.o):
    crt0.o                    cx16/crt0.s:8
ldaidx (ldai.o):
    sprite.o                  sprite.s:214
ldax0sp (ldaxsp.o):
    sprite.o                  sprite.s:214
    sprite.o                  sprite.s:214
ldaxi (ldaxi.o):
    calendar.o                calendar.s:86
    sprite.o                  sprite.s:214
ldaxidx (ldaxi.o):
    sprite.o                  sprite.s:214
    sprite.o                  sprite.s:214
ldaxysp (ldaxsp.o):
    fwrite.o                  common/fwrite.s:11
    sprite.o                  sprite.s:214
    main.o                    main.s:559
ldeaxysp (ldeaxysp.o):
    main.o                    main.s:559
mul8x16 (mul8.o):
    mul.o                     runtime/mul.s:8
mul8x16a (mul8.o):
    mul.o                     runtime/mul.s:8
negeax (lneg.o):
    ltoa.o                    common/ltoa.s:9
popa (popa.o):
    c_setlfs.o                cbm/c_setlfs.s:12
    c_load.o                  cbm/c_load.s:11
popax (incsp2.o):
    rwcommon.o                cbm/rwcommon.s:9
    ltoa.o                    common/ltoa.s:9
    _printf.o                 common/_printf.s:11
popptr1 (popptr1.o):
    rwcommon.o                cbm/rwcommon.s:9
    udiv.o                    runtime/udiv.s:9
    mul8.o                    runtime/mul8.s:9
    mul.o                     runtime/mul.s:9
    ltoa.o                    common/ltoa.s:9
ptr1 (zeropage.o):
    write.o                   cbm/write.s:11
    udiv.o                    runtime/udiv.s:10
    strlower.o                common/strlower.s:13
    popptr1.o                 runtime/popptr1.s:9
    mul8.o                    runtime/mul8.s:10
    mul.o                     runtime/mul.s:10
    ltoa.o                    common/ltoa.s:11
    lcmp.o                    runtime/lcmp.s:10
    fwrite.o                  common/fwrite.s:14
    _printf.o                 /Users/rje/git/cc65/asminc/zeropage.inc:12
    zerobss.o                 common/zerobss.s:9
    vfprintf.o                common/vfprintf.s:11
    printf.o                  common/printf.s:9
    ldaxi.o                   runtime/ldaxi.s:8
    ldai.o                    runtime/ldai.s:8
    c_setnam.o                cbm/c_setnam.s:10
    c_load.o                  cbm/c_load.s:12
    sprite.o                  sprite.s:11
    main.o                    main.s:11
ptr2 (zeropage.o):
    rwcommon.o                cbm/rwcommon.s:10
    write.o                   cbm/write.s:11
    strlower.o                common/strlower.s:13
    strlen.o                  common/strlen.s:12
    ltoa.o                    common/ltoa.s:11
    _printf.o                 /Users/rje/git/cc65/asminc/zeropage.inc:12
ptr3 (zeropage.o):
    rwcommon.o                cbm/rwcommon.s:10
    write.o                   cbm/write.s:11
    ltoa.o                    common/ltoa.s:11
ptr4 (zeropage.o):
    udiv.o                    runtime/udiv.s:10
    mul8.o                    runtime/mul8.s:10
    mul.o                     runtime/mul.s:10
push1 (push1.o):
    _printf.o                 common/_printf.s:11
    vfprintf.o                common/vfprintf.s:9
pusha (pusha.o):
    calendar.o                calendar.s:86
    vpoke.o                   vpoke.s:31
    main.o                    main.s:559
    main.o                    main.s:559
    main.o                    main.s:559
    main.o                    main.s:559
    main.o                    main.s:559
pusha0 (pushax.o):
    push1.o                   runtime/push1.s:8
pushax (pushax.o):
    fwrite.o                  common/fwrite.s:11
    callmain.o                runtime/callmain.s:11
    _printf.o                 common/_printf.s:11
    printf.o                  common/printf.s:8
    sprite.o                  sprite.s:214
    sprite.o                  sprite.s:214
    main.o                    main.s:559
    main.o                    main.s:559
    main.o                    main.s:559
pusheax (lpush.o):
    _printf.o                 common/_printf.s:11
    main.o                    main.s:559
pushwysp (pushwsp.o):
    fwrite.o                  common/fwrite.s:11
    vfprintf.o                common/vfprintf.s:9
regbank (zeropage.o):
    _printf.o                 /Users/rje/git/cc65/asminc/zeropage.inc:14
rwcommon (rwcommon.o):
    write.o                   cbm/write.s:10
sp (zeropage.o):
    pushwsp.o                 runtime/pushwsp.s:8
    popptr1.o                 runtime/popptr1.s:9
    lcmp.o                    runtime/lcmp.s:10
    incsp2.o                  runtime/incsp2.s:8
    decsp6.o                  runtime/decsp6.s:8
    decsp4.o                  runtime/decsp4.s:8
    addysp.o                  runtime/addysp.s:8
    _printf.o                 /Users/rje/git/cc65/asminc/zeropage.inc:11
    vfprintf.o                common/vfprintf.s:11
    steaxsp.o                 runtime/steaxsp.s:8
    pushax.o                  runtime/pushax.s:8
    pusha.o                   runtime/pusha.s:8
    printf.o                  common/printf.s:9
    popa.o                    runtime/popa.s:8
    lsub.o                    runtime/lsub.s:12
    lpush.o                   runtime/lpush.s:13
    ldeaxysp.o                runtime/ldeaxysp.s:12
    ldaxsp.o                  runtime/ldaxsp.s:8
    incsp1.o                  runtime/incsp1.s:8
    crt0.o                    /Users/rje/git/cc65/asminc/zeropage.inc:11
    calendar.o                calendar.s:10
    sprite.o                  sprite.s:10
    vpoke.o                   vpoke.s:10
    main.o                    main.s:10
sreg (zeropage.o):
    lneg.o                    runtime/lneg.s:11
    udiv.o                    runtime/udiv.s:10
    ltoa.o                    common/ltoa.s:11
    lcmp.o                    runtime/lcmp.s:10
    axlong.o                  runtime/axlong.s:9
    _printf.o                 /Users/rje/git/cc65/asminc/zeropage.inc:11
    steaxsp.o                 runtime/steaxsp.s:8
    lsub.o                    runtime/lsub.s:12
    lpush.o                   runtime/lpush.s:13
    ldeaxysp.o                runtime/ldeaxysp.s:12
    clock.o                   cx16/clock.s:12
    sprite.o                  sprite.s:10
    main.o                    main.s:10
steaxysp (steaxsp.o):
    main.o                    main.s:559
tmp1 (zeropage.o):
    mul.o                     runtime/mul.s:10
    ltoa.o                    common/ltoa.s:11
    _printf.o                 /Users/rje/git/cc65/asminc/zeropage.inc:13
    c_setlfs.o                cbm/c_setlfs.s:13
    asrax4.o                  runtime/asrax4.s:9
    asrax1.o                  runtime/asrax1.s:8
    aslax3.o                  runtime/aslax3.s:8
tmp2 (zeropage.o):
    rwcommon.o                cbm/rwcommon.s:10
toseqeax (leq.o):
    main.o                    main.s:559
toslcmp (lcmp.o):
    leq.o                     runtime/leq.s:8
tossubeax (lsub.o):
    main.o                    main.s:559
tosudivax (udiv.o):
    fwrite.o                  common/fwrite.s:12
tosumulax (mul.o):
    fwrite.o                  common/fwrite.s:12
zerobss (zerobss.o):
    crt0.o                    cx16/crt0.s:9

