Modules list:
-------------
main.o:
    CODE              Offs=000000  Size=00043C  Align=00001  Fill=0000
    RODATA            Offs=000000  Size=0001ED  Align=00001  Fill=0000
    BSS               Offs=000000  Size=00001D  Align=00001  Fill=0000
    DATA              Offs=000000  Size=000011  Align=00001  Fill=0000
sprite.o:
    CODE              Offs=00043C  Size=000399  Align=00001  Fill=0000
calendar.o:
    CODE              Offs=0007D5  Size=0001C6  Align=00001  Fill=0000
    RODATA            Offs=0001ED  Size=000139  Align=00001  Fill=0000
    BSS               Offs=00001D  Size=00001E  Align=00001  Fill=0000
    DATA              Offs=000011  Size=00004C  Align=00001  Fill=0000
map.o:
    CODE              Offs=00099B  Size=000421  Align=00001  Fill=0000
    RODATA            Offs=000326  Size=000041  Align=00001  Fill=0000
    BSS               Offs=00003B  Size=000011  Align=00001  Fill=0000
PSG.o:
    CODE              Offs=000DBC  Size=000090  Align=00001  Fill=0000
    DATA              Offs=00005D  Size=00006C  Align=00001  Fill=0000
/Users/rje/git/cc65/lib/cx16.lib(_cursor.o):
    BSS               Offs=00004C  Size=000001  Align=00001  Fill=0000
/Users/rje/git/cc65/lib/cx16.lib(_directerrno.o):
    CODE              Offs=000E4C  Size=000009  Align=00001  Fill=0000
/Users/rje/git/cc65/lib/cx16.lib(_hextab.o):
    RODATA            Offs=000367  Size=000010  Align=00001  Fill=0000
/Users/rje/git/cc65/lib/cx16.lib(_longminstr.o):
    RODATA            Offs=000377  Size=00000C  Align=00001  Fill=0000
/Users/rje/git/cc65/lib/cx16.lib(_oserror.o):
    BSS               Offs=00004D  Size=000001  Align=00001  Fill=0000
/Users/rje/git/cc65/lib/cx16.lib(_printf.o):
    CODE              Offs=000E55  Size=0003A5  Align=00001  Fill=0000
    BSS               Offs=00004E  Size=00002B  Align=00001  Fill=0000
    DATA              Offs=0000C9  Size=000003  Align=00001  Fill=0000
/Users/rje/git/cc65/lib/cx16.lib(_seterrno.o):
    CODE              Offs=0011FA  Size=000009  Align=00001  Fill=0000
/Users/rje/git/cc65/lib/cx16.lib(add.o):
    CODE              Offs=001203  Size=000018  Align=00001  Fill=0000
/Users/rje/git/cc65/lib/cx16.lib(addeqsp.o):
    CODE              Offs=00121B  Size=000011  Align=00001  Fill=0000
/Users/rje/git/cc65/lib/cx16.lib(addysp.o):
    CODE              Offs=00122C  Size=00000E  Align=00001  Fill=0000
/Users/rje/git/cc65/lib/cx16.lib(aslax1.o):
    CODE              Offs=00123A  Size=000008  Align=00001  Fill=0000
/Users/rje/git/cc65/lib/cx16.lib(aslax3.o):
    CODE              Offs=001242  Size=00000E  Align=00001  Fill=0000
/Users/rje/git/cc65/lib/cx16.lib(aslax4.o):
    CODE              Offs=001250  Size=000011  Align=00001  Fill=0000
/Users/rje/git/cc65/lib/cx16.lib(asrax1.o):
    CODE              Offs=001261  Size=00000A  Align=00001  Fill=0000
/Users/rje/git/cc65/lib/cx16.lib(asrax4.o):
    CODE              Offs=00126B  Size=000019  Align=00001  Fill=0000
/Users/rje/git/cc65/lib/cx16.lib(axlong.o):
    CODE              Offs=001284  Size=00000D  Align=00001  Fill=0000
/Users/rje/git/cc65/lib/cx16.lib(c_bsout.o):
/Users/rje/git/cc65/lib/cx16.lib(c_load.o):
    CODE              Offs=001291  Size=00001D  Align=00001  Fill=0000
/Users/rje/git/cc65/lib/cx16.lib(c_setlfs.o):
    CODE              Offs=0012AE  Size=00000E  Align=00001  Fill=0000
/Users/rje/git/cc65/lib/cx16.lib(c_setnam.o):
    CODE              Offs=0012BC  Size=000013  Align=00001  Fill=0000
/Users/rje/git/cc65/lib/cx16.lib(callmain.o):
    CODE              Offs=0012CF  Size=000017  Align=00001  Fill=0000
    DATA              Offs=0000CC  Size=000004  Align=00001  Fill=0000
/Users/rje/git/cc65/lib/cx16.lib(cgetc.o):
    CODE              Offs=0012E6  Size=000064  Align=00001  Fill=0000
/Users/rje/git/cc65/lib/cx16.lib(clrscr.o):
    CODE              Offs=00134A  Size=000011  Align=00001  Fill=0000
/Users/rje/git/cc65/lib/cx16.lib(color.o):
    CODE              Offs=00135B  Size=00002A  Align=00001  Fill=0000
/Users/rje/git/cc65/lib/cx16.lib(condes.o):
    CODE              Offs=001385  Size=00000C  Align=00001  Fill=0000
    DATA              Offs=0000D0  Size=000025  Align=00001  Fill=0000
    ONCE              Offs=000000  Size=00000C  Align=00001  Fill=0000
/Users/rje/git/cc65/lib/cx16.lib(cprintf.o):
    CODE              Offs=001391  Size=00002A  Align=00001  Fill=0000
    BSS               Offs=000079  Size=000001  Align=00001  Fill=0000
/Users/rje/git/cc65/lib/cx16.lib(cputc.o):
    CODE              Offs=0013BB  Size=00005F  Align=00001  Fill=0000
    RODATA            Offs=000383  Size=000008  Align=00001  Fill=0000
/Users/rje/git/cc65/lib/cx16.lib(cputs.o):
    CODE              Offs=00141A  Size=000023  Align=00001  Fill=0000
/Users/rje/git/cc65/lib/cx16.lib(crt0.o):
    STARTUP           Offs=000000  Size=000028  Align=00001  Fill=0000
    ONCE              Offs=00000C  Size=000023  Align=00001  Fill=0000
    INIT              Offs=000000  Size=000002  Align=00001  Fill=0000
/Users/rje/git/cc65/lib/cx16.lib(ctype.o):
    RODATA            Offs=00038B  Size=00008B  Align=00001  Fill=0000
/Users/rje/git/cc65/lib/cx16.lib(ctypemask.o):
    CODE              Offs=00143D  Size=00001E  Align=00001  Fill=0000
/Users/rje/git/cc65/lib/cx16.lib(decax1.o):
    CODE              Offs=00145B  Size=000007  Align=00001  Fill=0000
/Users/rje/git/cc65/lib/cx16.lib(decaxy.o):
    CODE              Offs=001462  Size=000009  Align=00001  Fill=0000
/Users/rje/git/cc65/lib/cx16.lib(decsp1.o):
    CODE              Offs=00146B  Size=000009  Align=00001  Fill=0000
/Users/rje/git/cc65/lib/cx16.lib(decsp3.o):
    CODE              Offs=001474  Size=00000D  Align=00001  Fill=0000
/Users/rje/git/cc65/lib/cx16.lib(decsp4.o):
    CODE              Offs=001481  Size=00000D  Align=00001  Fill=0000
/Users/rje/git/cc65/lib/cx16.lib(decsp6.o):
    CODE              Offs=00148E  Size=00000D  Align=00001  Fill=0000
/Users/rje/git/cc65/lib/cx16.lib(div.o):
    CODE              Offs=00149B  Size=000015  Align=00001  Fill=0000
/Users/rje/git/cc65/lib/cx16.lib(divt.o):
    CODE              Offs=0014B0  Size=000015  Align=00001  Fill=0000
/Users/rje/git/cc65/lib/cx16.lib(errno.o):
    BSS               Offs=00007A  Size=000002  Align=00001  Fill=0000
/Users/rje/git/cc65/lib/cx16.lib(exehdr.o):
    EXEHDR            Offs=000000  Size=00000C  Align=00001  Fill=0000
/Users/rje/git/cc65/lib/cx16.lib(gettime.o):
    CODE              Offs=0014C5  Size=00004C  Align=00001  Fill=0000
/Users/rje/git/cc65/lib/cx16.lib(gotoxy.o):
    CODE              Offs=001511  Size=00000F  Align=00001  Fill=0000
/Users/rje/git/cc65/lib/cx16.lib(icmp.o):
    CODE              Offs=001520  Size=00002E  Align=00001  Fill=0000
/Users/rje/git/cc65/lib/cx16.lib(incax2.o):
    CODE              Offs=00154E  Size=000007  Align=00001  Fill=0000
/Users/rje/git/cc65/lib/cx16.lib(incax3.o):
    CODE              Offs=001555  Size=000005  Align=00001  Fill=0000
/Users/rje/git/cc65/lib/cx16.lib(incax5.o):
    CODE              Offs=00155A  Size=000005  Align=00001  Fill=0000
/Users/rje/git/cc65/lib/cx16.lib(incax6.o):
    CODE              Offs=00155F  Size=000005  Align=00001  Fill=0000
/Users/rje/git/cc65/lib/cx16.lib(incax7.o):
    CODE              Offs=001564  Size=000005  Align=00001  Fill=0000
/Users/rje/git/cc65/lib/cx16.lib(incaxy.o):
    CODE              Offs=001569  Size=00000B  Align=00001  Fill=0000
/Users/rje/git/cc65/lib/cx16.lib(incsp1.o):
    CODE              Offs=001574  Size=000007  Align=00001  Fill=0000
/Users/rje/git/cc65/lib/cx16.lib(incsp2.o):
    CODE              Offs=00157B  Size=000015  Align=00001  Fill=0000
/Users/rje/git/cc65/lib/cx16.lib(incsp3.o):
    CODE              Offs=001590  Size=000005  Align=00001  Fill=0000
/Users/rje/git/cc65/lib/cx16.lib(incsp4.o):
    CODE              Offs=001595  Size=000005  Align=00001  Fill=0000
/Users/rje/git/cc65/lib/cx16.lib(incsp5.o):
    CODE              Offs=00159A  Size=000005  Align=00001  Fill=0000
/Users/rje/git/cc65/lib/cx16.lib(incsp6.o):
    CODE              Offs=00159F  Size=000005  Align=00001  Fill=0000
/Users/rje/git/cc65/lib/cx16.lib(kbhit.o):
    CODE              Offs=0015A4  Size=00000E  Align=00001  Fill=0000
/Users/rje/git/cc65/lib/cx16.lib(kernal.o):
/Users/rje/git/cc65/lib/cx16.lib(ladd.o):
    CODE              Offs=0015B2  Size=000024  Align=00001  Fill=0000
/Users/rje/git/cc65/lib/cx16.lib(ldai.o):
    CODE              Offs=0015D6  Size=00000C  Align=00001  Fill=0000
/Users/rje/git/cc65/lib/cx16.lib(ldaxi.o):
    CODE              Offs=0015E2  Size=00000D  Align=00001  Fill=0000
/Users/rje/git/cc65/lib/cx16.lib(ldaxsp.o):
    CODE              Offs=0015EF  Size=000009  Align=00001  Fill=0000
/Users/rje/git/cc65/lib/cx16.lib(ldeaxi.o):
    CODE              Offs=0015F8  Size=000017  Align=00001  Fill=0000
/Users/rje/git/cc65/lib/cx16.lib(lmul.o):
    CODE              Offs=00160F  Size=000059  Align=00001  Fill=0000
/Users/rje/git/cc65/lib/cx16.lib(lneg.o):
    CODE              Offs=001668  Size=00001E  Align=00001  Fill=0000
/Users/rje/git/cc65/lib/cx16.lib(loadaddr.o):
    LOADADDR          Offs=000000  Size=000002  Align=00001  Fill=0000
/Users/rje/git/cc65/lib/cx16.lib(lpush.o):
    CODE              Offs=001686  Size=00001E  Align=00001  Fill=0000
/Users/rje/git/cc65/lib/cx16.lib(lsub.o):
    CODE              Offs=0016A4  Size=000024  Align=00001  Fill=0000
/Users/rje/git/cc65/lib/cx16.lib(ltoa.o):
    CODE              Offs=0016C8  Size=000093  Align=00001  Fill=0000
/Users/rje/git/cc65/lib/cx16.lib(ludiv.o):
    CODE              Offs=00175B  Size=000077  Align=00001  Fill=0000
/Users/rje/git/cc65/lib/cx16.lib(lumod.o):
    CODE              Offs=0017D2  Size=000017  Align=00001  Fill=0000
/Users/rje/git/cc65/lib/cx16.lib(memcpy.o):
    CODE              Offs=0017E9  Size=00003C  Align=00001  Fill=0000
/Users/rje/git/cc65/lib/cx16.lib(mktime.o):
    CODE              Offs=001825  Size=0003D7  Align=00001  Fill=0000
    RODATA            Offs=000416  Size=00002E  Align=00001  Fill=0000
/Users/rje/git/cc65/lib/cx16.lib(mod.o):
    CODE              Offs=001BFC  Size=000011  Align=00001  Fill=0000
/Users/rje/git/cc65/lib/cx16.lib(mul.o):
    CODE              Offs=001C0D  Size=000045  Align=00001  Fill=0000
/Users/rje/git/cc65/lib/cx16.lib(mul8.o):
    CODE              Offs=001C52  Size=00003A  Align=00001  Fill=0000
/Users/rje/git/cc65/lib/cx16.lib(negabs.o):
    CODE              Offs=001C8C  Size=000012  Align=00001  Fill=0000
/Users/rje/git/cc65/lib/cx16.lib(popa.o):
    CODE              Offs=001C9E  Size=00000A  Align=00001  Fill=0000
/Users/rje/git/cc65/lib/cx16.lib(popptr1.o):
    CODE              Offs=001CA8  Size=00000E  Align=00001  Fill=0000
/Users/rje/git/cc65/lib/cx16.lib(push1.o):
    CODE              Offs=001CB6  Size=000005  Align=00001  Fill=0000
/Users/rje/git/cc65/lib/cx16.lib(pusha.o):
    CODE              Offs=001CBB  Size=000016  Align=00001  Fill=0000
/Users/rje/git/cc65/lib/cx16.lib(pushax.o):
    CODE              Offs=001CD1  Size=00001A  Align=00001  Fill=0000
/Users/rje/git/cc65/lib/cx16.lib(pushw.o):
    CODE              Offs=001CEB  Size=00000F  Align=00001  Fill=0000
/Users/rje/git/cc65/lib/cx16.lib(pushwsp.o):
    CODE              Offs=001CFA  Size=00001C  Align=00001  Fill=0000
/Users/rje/git/cc65/lib/cx16.lib(rand.o):
    CODE              Offs=001D16  Size=000034  Align=00001  Fill=0000
    DATA              Offs=0000F5  Size=000004  Align=00001  Fill=0000
/Users/rje/git/cc65/lib/cx16.lib(randomize.o):
    CODE              Offs=001D4A  Size=000006  Align=00001  Fill=0000
/Users/rje/git/cc65/lib/cx16.lib(regswap2.o):
    CODE              Offs=001D50  Size=000016  Align=00001  Fill=0000
/Users/rje/git/cc65/lib/cx16.lib(return0.o):
    CODE              Offs=001D66  Size=000004  Align=00001  Fill=0000
/Users/rje/git/cc65/lib/cx16.lib(revers.o):
    CODE              Offs=001D6A  Size=000013  Align=00001  Fill=0000
/Users/rje/git/cc65/lib/cx16.lib(shelp.o):
    CODE              Offs=001D7D  Size=000020  Align=00001  Fill=0000
/Users/rje/git/cc65/lib/cx16.lib(shrax1.o):
    CODE              Offs=001D9D  Size=000008  Align=00001  Fill=0000
/Users/rje/git/cc65/lib/cx16.lib(shrax2.o):
    CODE              Offs=001DA5  Size=00000B  Align=00001  Fill=0000
/Users/rje/git/cc65/lib/cx16.lib(shrax4.o):
    CODE              Offs=001DB0  Size=000011  Align=00001  Fill=0000
/Users/rje/git/cc65/lib/cx16.lib(shreax4.o):
    CODE              Offs=001DC1  Size=000011  Align=00001  Fill=0000
/Users/rje/git/cc65/lib/cx16.lib(sprintf.o):
    CODE              Offs=001DD2  Size=00002B  Align=00001  Fill=0000
    BSS               Offs=00007C  Size=000001  Align=00001  Fill=0000
/Users/rje/git/cc65/lib/cx16.lib(sprites_enable.o):
    CODE              Offs=001DFD  Size=00001F  Align=00001  Fill=0000
/Users/rje/git/cc65/lib/cx16.lib(staxsp.o):
    CODE              Offs=001E1C  Size=00000B  Align=00001  Fill=0000
/Users/rje/git/cc65/lib/cx16.lib(staxspi.o):
    CODE              Offs=001E27  Size=00001A  Align=00001  Fill=0000
/Users/rje/git/cc65/lib/cx16.lib(steaxspi.o):
    CODE              Offs=001E41  Size=000022  Align=00001  Fill=0000
/Users/rje/git/cc65/lib/cx16.lib(strlen.o):
    CODE              Offs=001E63  Size=000016  Align=00001  Fill=0000
/Users/rje/git/cc65/lib/cx16.lib(strlower.o):
    CODE              Offs=001E79  Size=000027  Align=00001  Fill=0000
/Users/rje/git/cc65/lib/cx16.lib(subysp.o):
    CODE              Offs=001EA0  Size=00000D  Align=00001  Fill=0000
/Users/rje/git/cc65/lib/cx16.lib(time.o):
    CODE              Offs=001EAD  Size=000043  Align=00001  Fill=0000
    BSS               Offs=00007D  Size=000008  Align=00001  Fill=0000
/Users/rje/git/cc65/lib/cx16.lib(timezone.o):
    DATA              Offs=0000F9  Size=00000F  Align=00001  Fill=0000
/Users/rje/git/cc65/lib/cx16.lib(tmcommon.o):
    CODE              Offs=001EF0  Size=00000D  Align=00001  Fill=0000
    DATA              Offs=000108  Size=000012  Align=00001  Fill=0000
/Users/rje/git/cc65/lib/cx16.lib(udiv.o):
    CODE              Offs=001EFD  Size=00004F  Align=00001  Fill=0000
/Users/rje/git/cc65/lib/cx16.lib(umod.o):
    CODE              Offs=001F4C  Size=000011  Align=00001  Fill=0000
/Users/rje/git/cc65/lib/cx16.lib(vcprintf.o):
    CODE              Offs=001F5D  Size=000078  Align=00001  Fill=0000
    DATA              Offs=00011A  Size=000008  Align=00001  Fill=0000
/Users/rje/git/cc65/lib/cx16.lib(vsnprintf.o):
    CODE              Offs=001FD5  Size=0000DA  Align=00001  Fill=0000
    DATA              Offs=000122  Size=000008  Align=00001  Fill=0000
/Users/rje/git/cc65/lib/cx16.lib(vsprintf.o):
    CODE              Offs=0020AF  Size=000012  Align=00001  Fill=0000
/Users/rje/git/cc65/lib/cx16.lib(zerobss.o):
    CODE              Offs=0020C1  Size=000023  Align=00001  Fill=0000
/Users/rje/git/cc65/lib/cx16.lib(zeropage.o):
    ZEROPAGE          Offs=000000  Size=00001A  Align=00001  Fill=0000


Segment list:
-------------
Name                   Start     End    Size  Align
----------------------------------------------------
ZEROPAGE              000022  00003B  00001A  00001
LOADADDR              0007FF  000800  000002  00001
EXEHDR                000801  00080C  00000C  00001
STARTUP               00080D  000834  000028  00001
CODE                  000835  002918  0020E4  00001
RODATA                002919  002D5C  000444  00001
DATA                  002D5D  002E86  00012A  00001
INIT                  002E87  002E88  000002  00001
BSS                   002E89  002F0D  000085  00001
ONCE                  002E89  002EB7  00002F  00001


Exports list by name:
---------------------
BSOUT                     00FFD2 RLA    CHROUT                    00FFD2 RLA    
CLOCK_GET_DATE_TIME       00FF50 RLA    ENTROPY_GET               00FECF RLA    
GETIN                     00FFE4 RLA    LOAD                      00FFD5 RLA    
PLOT                      00FFF0 RLA    SETLFS                    00FFBA RLA    
SETNAM                    00FFBD RLA    TM                        002E65 RLA    
__BSS_RUN__               002E89 RLA    __BSS_SIZE__              000085 REA    
__CONSTRUCTOR_COUNT__     000000 REA    __CONSTRUCTOR_TABLE__     002EB8 RLA    
__DESTRUCTOR_COUNT__      000000 REA    __DESTRUCTOR_TABLE__      002D5D RLA    
__EXEHDR__                000001 REA    __HEADER_LAST__           00080D RLA    
__HIMEM__                 009F00 REA    __LOADADDR__              000001 REA    
__MAIN_SIZE__             0096F3 REA    __MAIN_START__            00080D RLA    
__ONCE_RUN__              002E89 RLA    __STACKSIZE__             000800 REA    
__STARTUP__               000001 REA    __ctype                   002CA4 RLA    
__ctypeidx                002CAF RLA    __directerrno             001681 RLA    
__errno                   002F03 RLA    __hextab                  002C80 RLA    
__longminstr              002C90 RLA    __oserror                 002ED6 RLA    
__printf                  00177D RLA    __randomize               00257F RLA    
__seterrno                001A2F RLA    __tz                      002E56 RLA    
_bgcolor                  001BA3 RLA    _cbm_k_bsout              00FFD2 RLA    
_cbm_k_load               001AC6 RLA    _cbm_k_setlfs             001AE3 RLA    
_cbm_k_setnam             001AF1 RLA    _cgetc                    001B1B RLA    
_clock_gettime            001CFA RLA    _clrscr                   001B7F RLA    
_cprintf                  001BC6 RLA    _cputc                    001BF5 RLA    
_cputsxy                  001C4F RLA    _div                      001CE5 RLA    
_gotoxy                   001D49 RLA    _kbhit                    001DD9 RLA    
_ltoa                     001F15 RLA    _main                     000C19 RLA    
_map_calculate            001387 RLA    _map_east                 001317 RLA    
_map_init                 0011D0 RLA    _map_north                0012DF RLA    
_map_show                 0015F0 RLA    _map_south                0012A7 RLA    
_map_west                 00134F RLA    _memcpy                   00201E RLA    
_mktime                   00205A RLA    _rand                     002557 RLA    
_revers                   00259F RLA    _sprintf                  002607 RLA    
_sprite_define            000C71 RLA    _srand                    00254B RLA    
_strlen                   002698 RLA    _strlower                 0026AE RLA    
_theDate                  00100A RLA    _time                     0026E2 RLA    
_ultoa                    001F54 RLA    _vcprintf                 0027DA RLA    
_vera_sprites_enable      002632 RLA    _vsprintf                 0028E4 RLA    
addeq0sp                  001A50 RLA    addeqysp                  001A52 RLA    
addysp                    001A62 RLA    addysp1                   001A61 RLA    
aslax1                    001A6F RLA    aslax3                    001A77 RLA    
aslax4                    001A85 RLA    asrax1                    001A96 RLA    
asrax4                    001AA0 RLA    axlong                    001AB9 RLA    
axulong                   001ABF RLA    callmain                  001B04 RLA    
ctypemaskdirect           001C76 RLA    cursor                    002ED5 RLA    
decax1                    001C90 RLA    decaxy                    001C97 RLA    
decsp1                    001CA0 RLA    decsp3                    001CA9 RLA    
decsp4                    001CB6 RLA    decsp6                    001CC3 RLA    
donelib                   001BBA RLA    getlop                    001F9F RLA    
gotoxy                    001D46 RLA    incax2                    001D83 RLA    
incax3                    001D8A RLA    incax4                    001D9E RLA    
incax5                    001D8F RLA    incax6                    001D94 RLA    
incax7                    001D99 RLA    incaxy                    001DA0 RLA    
incsp1                    001DA9 RLA    incsp2                    001DB7 RLA    
incsp3                    001DC5 RLA    incsp4                    001DCA RLA    
incsp5                    001DCF RLA    incsp6                    001DD4 RLA    
initlib                   002E89 RLA    ldaidx                    001E0B RLA    
ldax0sp                   001E24 RLA    ldaxi                     001E17 RLA    
ldaxidx                   001E19 RLA    ldaxysp                   001E26 RLA    
ldeaxi                    001E2D RLA    load_jiffy                002725 RLA    
mul8x16                   002489 RLA    mul8x16a                  002493 RLA    
negax                     0024C5 RLA    negeax                    001E9D RLA    
plot                      001C21 RLA    popa                      0024D3 RLA    
popax                     001DB0 RLA    popptr1                   0024DD RLA    
popsargsudiv16            0025B2 RLA    ptr1                      00002A RLZ    
ptr2                      00002C RLZ    ptr3                      00002E RLZ    
ptr4                      000030 RLZ    push1                     0024EB RLA    
pusha                     0024F4 RLA    pusha0                    002508 RLA    
pushax                    00250A RLA    pusheax                   001EC2 RLA    
pushw                     002520 RLA    pushw0sp                  00252F RLA    
pushwysp                  002531 RLA    regbank                   000036 RLZ    
regswap2                  002585 RLA    return0                   00259B RLA    
shlax3                    001A77 RLA    shlax4                    001A85 RLA    
shrax1                    0025D2 RLA    shrax2                    0025DA RLA    
shrax4                    0025E5 RLA    shreax4                   0025F6 RLA    
sp                        000022 RLZ    sreg                      000024 RLZ    
stax0sp                   002651 RLA    staxspidx                 00265C RLA    
staxysp                   002653 RLA    steaxspidx                002676 RLA    
subysp                    0026D5 RLA    tmp1                      000032 RLZ    
tmp2                      000033 RLZ    tmp3                      000034 RLZ    
tmp4                      000035 RLZ    tosaddax                  001A3A RLA    
tosaddeax                 001DED RLA    tosdiva0                  001CD0 RLA    
tosdivax                  001CD2 RLA    tosicmp                   001D57 RLA    
tosmoda0                  002431 RLA    tosmodax                  002433 RLA    
tosmul0ax                 001E44 RLA    tosmula0                  002487 RLA    
tossubeax                 001EDD RLA    tosudiv0ax                001F90 RLA    
tosudiveax                001F94 RLA    tosumod0ax                002007 RLA    
tosumoda0                 002781 RLA    tosumodax                 002783 RLA    
tosumul0ax                001E44 RLA    tosumula0                 002487 RLA    
tosumulax                 002442 RLA    tosumuleax                001E48 RLA    
udiv16                    002743 RLA    udiv32                    001FC2 RLA    
vsnprintf                 00280D RLA    zerobss                   0028F6 RLA    



Exports list by value:
----------------------
__CONSTRUCTOR_COUNT__     000000 REA    __DESTRUCTOR_COUNT__      000000 REA    
__STARTUP__               000001 REA    __LOADADDR__              000001 REA    
__EXEHDR__                000001 REA    sp                        000022 RLZ    
sreg                      000024 RLZ    ptr1                      00002A RLZ    
ptr2                      00002C RLZ    ptr3                      00002E RLZ    
ptr4                      000030 RLZ    tmp1                      000032 RLZ    
tmp2                      000033 RLZ    tmp3                      000034 RLZ    
tmp4                      000035 RLZ    regbank                   000036 RLZ    
__BSS_SIZE__              000085 REA    __STACKSIZE__             000800 REA    
__HEADER_LAST__           00080D RLA    __MAIN_START__            00080D RLA    
_main                     000C19 RLA    _sprite_define            000C71 RLA    
_theDate                  00100A RLA    _map_init                 0011D0 RLA    
_map_south                0012A7 RLA    _map_north                0012DF RLA    
_map_east                 001317 RLA    _map_west                 00134F RLA    
_map_calculate            001387 RLA    _map_show                 0015F0 RLA    
__directerrno             001681 RLA    __printf                  00177D RLA    
__seterrno                001A2F RLA    tosaddax                  001A3A RLA    
addeq0sp                  001A50 RLA    addeqysp                  001A52 RLA    
addysp1                   001A61 RLA    addysp                    001A62 RLA    
aslax1                    001A6F RLA    aslax3                    001A77 RLA    
shlax3                    001A77 RLA    aslax4                    001A85 RLA    
shlax4                    001A85 RLA    asrax1                    001A96 RLA    
asrax4                    001AA0 RLA    axlong                    001AB9 RLA    
axulong                   001ABF RLA    _cbm_k_load               001AC6 RLA    
_cbm_k_setlfs             001AE3 RLA    _cbm_k_setnam             001AF1 RLA    
callmain                  001B04 RLA    _cgetc                    001B1B RLA    
_clrscr                   001B7F RLA    _bgcolor                  001BA3 RLA    
donelib                   001BBA RLA    _cprintf                  001BC6 RLA    
_cputc                    001BF5 RLA    plot                      001C21 RLA    
_cputsxy                  001C4F RLA    ctypemaskdirect           001C76 RLA    
decax1                    001C90 RLA    decaxy                    001C97 RLA    
decsp1                    001CA0 RLA    decsp3                    001CA9 RLA    
decsp4                    001CB6 RLA    decsp6                    001CC3 RLA    
tosdiva0                  001CD0 RLA    tosdivax                  001CD2 RLA    
_div                      001CE5 RLA    _clock_gettime            001CFA RLA    
gotoxy                    001D46 RLA    _gotoxy                   001D49 RLA    
tosicmp                   001D57 RLA    incax2                    001D83 RLA    
incax3                    001D8A RLA    incax5                    001D8F RLA    
incax6                    001D94 RLA    incax7                    001D99 RLA    
incax4                    001D9E RLA    incaxy                    001DA0 RLA    
incsp1                    001DA9 RLA    popax                     001DB0 RLA    
incsp2                    001DB7 RLA    incsp3                    001DC5 RLA    
incsp4                    001DCA RLA    incsp5                    001DCF RLA    
incsp6                    001DD4 RLA    _kbhit                    001DD9 RLA    
tosaddeax                 001DED RLA    ldaidx                    001E0B RLA    
ldaxi                     001E17 RLA    ldaxidx                   001E19 RLA    
ldax0sp                   001E24 RLA    ldaxysp                   001E26 RLA    
ldeaxi                    001E2D RLA    tosmul0ax                 001E44 RLA    
tosumul0ax                001E44 RLA    tosumuleax                001E48 RLA    
negeax                    001E9D RLA    pusheax                   001EC2 RLA    
tossubeax                 001EDD RLA    _ltoa                     001F15 RLA    
_ultoa                    001F54 RLA    tosudiv0ax                001F90 RLA    
tosudiveax                001F94 RLA    getlop                    001F9F RLA    
udiv32                    001FC2 RLA    tosumod0ax                002007 RLA    
_memcpy                   00201E RLA    _mktime                   00205A RLA    
tosmoda0                  002431 RLA    tosmodax                  002433 RLA    
tosumulax                 002442 RLA    tosmula0                  002487 RLA    
tosumula0                 002487 RLA    mul8x16                   002489 RLA    
mul8x16a                  002493 RLA    negax                     0024C5 RLA    
popa                      0024D3 RLA    popptr1                   0024DD RLA    
push1                     0024EB RLA    pusha                     0024F4 RLA    
pusha0                    002508 RLA    pushax                    00250A RLA    
pushw                     002520 RLA    pushw0sp                  00252F RLA    
pushwysp                  002531 RLA    _srand                    00254B RLA    
_rand                     002557 RLA    __randomize               00257F RLA    
regswap2                  002585 RLA    return0                   00259B RLA    
_revers                   00259F RLA    popsargsudiv16            0025B2 RLA    
shrax1                    0025D2 RLA    shrax2                    0025DA RLA    
shrax4                    0025E5 RLA    shreax4                   0025F6 RLA    
_sprintf                  002607 RLA    _vera_sprites_enable      002632 RLA    
stax0sp                   002651 RLA    staxysp                   002653 RLA    
staxspidx                 00265C RLA    steaxspidx                002676 RLA    
_strlen                   002698 RLA    _strlower                 0026AE RLA    
subysp                    0026D5 RLA    _time                     0026E2 RLA    
load_jiffy                002725 RLA    udiv16                    002743 RLA    
tosumoda0                 002781 RLA    tosumodax                 002783 RLA    
_vcprintf                 0027DA RLA    vsnprintf                 00280D RLA    
_vsprintf                 0028E4 RLA    zerobss                   0028F6 RLA    
__hextab                  002C80 RLA    __longminstr              002C90 RLA    
__ctype                   002CA4 RLA    __ctypeidx                002CAF RLA    
__DESTRUCTOR_TABLE__      002D5D RLA    __tz                      002E56 RLA    
TM                        002E65 RLA    initlib                   002E89 RLA    
__ONCE_RUN__              002E89 RLA    __BSS_RUN__               002E89 RLA    
__CONSTRUCTOR_TABLE__     002EB8 RLA    cursor                    002ED5 RLA    
__oserror                 002ED6 RLA    __errno                   002F03 RLA    
__MAIN_SIZE__             0096F3 REA    __HIMEM__                 009F00 REA    
ENTROPY_GET               00FECF RLA    CLOCK_GET_DATE_TIME       00FF50 RLA    
SETLFS                    00FFBA RLA    SETNAM                    00FFBD RLA    
BSOUT                     00FFD2 RLA    _cbm_k_bsout              00FFD2 RLA    
CHROUT                    00FFD2 RLA    LOAD                      00FFD5 RLA    
GETIN                     00FFE4 RLA    PLOT                      00FFF0 RLA    



Imports list:
-------------
BSOUT (kernal.o):
    c_bsout.o                 cbm/cbm.inc:49
CHROUT (kernal.o):
    crt0.o                    cx16/crt0.s:10
    clrscr.o                  cx16/clrscr.s:10
    c_bsout.o                 cbm/cbm.inc:50
CLOCK_GET_DATE_TIME (kernal.o):
    gettime.o                 cx16/gettime.s:12
ENTROPY_GET (kernal.o):
    randomize.o               cx16/randomize.s:10
GETIN (kernal.o):
    cgetc.o                   cx16/cgetc.s:10
LOAD (kernal.o):
    c_load.o                  cbm/cbm.inc:37
PLOT (kernal.o):
    cputc.o                   cx16/cputc.s:11
SETLFS (kernal.o):
    c_setlfs.o                cbm/cbm.inc:33
SETNAM (kernal.o):
    c_setnam.o                cbm/cbm.inc:34
TM (tmcommon.o):
    gettime.o                 cx16/gettime.s:11
__BSS_RUN__ ([linker generated]):
    zerobss.o                 common/zerobss.s:8
__BSS_SIZE__ ([linker generated]):
    zerobss.o                 common/zerobss.s:8
__CONSTRUCTOR_COUNT__ ([linker generated]):
    condes.o                  runtime/condes.s:18
__CONSTRUCTOR_TABLE__ ([linker generated]):
    condes.o                  runtime/condes.s:18
__DESTRUCTOR_COUNT__ ([linker generated]):
    condes.o                  runtime/condes.s:19
__DESTRUCTOR_TABLE__ ([linker generated]):
    condes.o                  runtime/condes.s:19
__EXEHDR__ (exehdr.o):
    [linker generated]        /Users/rje/git/cc65/cfg/cx16.cfg:6
__HEADER_LAST__ ([linker generated]):
    [linker generated]        /Users/rje/git/cc65/cfg/cx16.cfg:14
    [linker generated]        /Users/rje/git/cc65/cfg/cx16.cfg:14
__HIMEM__ ([linker generated]):
    [linker generated]        /Users/rje/git/cc65/cfg/cx16.cfg:15
    [linker generated]        /Users/rje/git/cc65/cfg/cx16.cfg:14
__LOADADDR__ (loadaddr.o):
    [linker generated]        /Users/rje/git/cc65/cfg/cx16.cfg:5
__MAIN_SIZE__ ([linker generated]):
    crt0.o                    cx16/crt0.s:11
__MAIN_START__ ([linker generated]):
    crt0.o                    cx16/crt0.s:11
__ONCE_RUN__ ([linker generated]):
    [linker generated]        /Users/rje/git/cc65/cfg/cx16.cfg:15
    [linker generated]        /Users/rje/git/cc65/cfg/cx16.cfg:15
__STACKSIZE__ ([linker generated]):
    [linker generated]        /Users/rje/git/cc65/cfg/cx16.cfg:15
__STARTUP__ (crt0.o):
    main.o                    main.s:13
__ctype (ctype.o):
    ctypemask.o               common/ctypemask.s:23
__ctypeidx (ctype.o):
    ctypemask.o               common/ctypemask.s:24
__directerrno (_directerrno.o):
    vsnprintf.o               /Users/rje/git/cc65/asminc/errno.inc:10
__errno (errno.o):
    _seterrno.o               /Users/rje/git/cc65/asminc/errno.inc:7
__hextab (_hextab.o):
    ltoa.o                    common/ltoa.s:10
__longminstr (_longminstr.o):
    ltoa.o                    common/ltoa.s:10
__oserror (_oserror.o):
    _directerrno.o            /Users/rje/git/cc65/asminc/errno.inc:7
    c_load.o                  cbm/c_load.s:10
__printf (_printf.o):
    vsnprintf.o               common/vsnprintf.s:10
    vcprintf.o                conio/vcprintf.s:9
__randomize (randomize.o):
    main.o                    main.s:26
__seterrno (_seterrno.o):
    _directerrno.o            /Users/rje/git/cc65/asminc/errno.inc:9
__tz (timezone.o):
    mktime.o                  ../libwrk/cx16/mktime.s:14
_bgcolor (color.o):
    main.o                    main.s:24
_cbm_k_bsout (c_bsout.o):
    main.o                    main.s:15
_cbm_k_load (c_load.o):
    main.o                    main.s:16
_cbm_k_setlfs (c_setlfs.o):
    main.o                    main.s:17
_cbm_k_setnam (c_setnam.o):
    main.o                    main.s:18
_cgetc (cgetc.o):
    main.o                    main.s:23
_clock_gettime (gettime.o):
    time.o                    /Users/rje/git/cc65/asminc/time.inc:65
_clrscr (clrscr.o):
    main.o                    main.s:19
_cprintf (cprintf.o):
    map.o                     map.s:15
    main.o                    main.s:22
_cputc (cputc.o):
    vcprintf.o                conio/vcprintf.s:9
    cputs.o                   conio/cputs.s:9
_cputsxy (cputs.o):
    map.o                     map.s:14
    main.o                    main.s:21
_div (divt.o):
    mktime.o                  ../libwrk/cx16/mktime.s:13
_gotoxy (gotoxy.o):
    map.o                     map.s:13
_kbhit (kbhit.o):
    cgetc.o                   cx16/cgetc.s:10
    main.o                    main.s:20
_ltoa (ltoa.o):
    _printf.o                 common/_printf.s:12
_main (main.o):
    callmain.o                runtime/callmain.s:11
_map_calculate (map.o):
    main.o                    main.s:33
_map_east (map.o):
    main.o                    main.s:31
_map_init (map.o):
    main.o                    main.s:28
_map_north (map.o):
    main.o                    main.s:30
_map_show (map.o):
    main.o                    main.s:34
_map_south (map.o):
    main.o                    main.s:29
_map_west (map.o):
    main.o                    main.s:32
_memcpy (memcpy.o):
    vsnprintf.o               common/vsnprintf.s:10
_mktime (mktime.o):
    gettime.o                 /Users/rje/git/cc65/asminc/time.inc:68
_rand (rand.o):
    main.o                    main.s:25
_revers (revers.o):
    map.o                     map.s:16
_sprintf (sprintf.o):
    calendar.o                calendar.s:13
_sprite_define (sprite.o):
    map.o                     map.s:24
    main.o                    main.s:27
_srand (rand.o):
    randomize.o               cx16/randomize.s:10
_strlen (strlen.o):
    _printf.o                 common/_printf.s:13
_strlower (strlower.o):
    _printf.o                 common/_printf.s:13
_theDate (calendar.o):
    main.o                    main.s:35
_time (time.o):
    calendar.o                calendar.s:14
_ultoa (ltoa.o):
    _printf.o                 common/_printf.s:12
_vcprintf (vcprintf.o):
    cprintf.o                 conio/cprintf.s:8
_vera_sprites_enable (sprites_enable.o):
    main.o                    main.s:14
_vsprintf (vsprintf.o):
    sprintf.o                 common/sprintf.s:8
addeq0sp (addeqsp.o):
    map.o                     map.s:608
    sprite.o                  sprite.s:525
addeqysp (addeqsp.o):
    map.o                     map.s:608
    map.o                     map.s:608
addysp (addysp.o):
    incsp6.o                  runtime/incsp6.s:8
    mktime.o                  ../libwrk/cx16/mktime.s:618
    sprintf.o                 common/sprintf.s:8
    incsp5.o                  runtime/incsp5.s:8
    incsp4.o                  runtime/incsp4.s:8
    incsp3.o                  runtime/incsp3.s:8
    cprintf.o                 conio/cprintf.s:8
    map.o                     map.s:608
addysp1 (addysp.o):
    lsub.o                    runtime/lsub.s:11
    ladd.o                    runtime/ladd.s:8
    lmul.o                    runtime/lmul.s:9
    ludiv.o                   runtime/ludiv.s:9
aslax1 (aslax1.o):
    mktime.o                  ../libwrk/cx16/mktime.s:618
    PSG.o                     PSG.s:160
    map.o                     map.s:608
aslax3 (aslax3.o):
    sprite.o                  sprite.s:525
    sprite.o                  sprite.s:525
    sprite.o                  sprite.s:525
    sprite.o                  sprite.s:525
aslax4 (aslax4.o):
    map.o                     map.s:608
asrax1 (asrax1.o):
    sprite.o                  sprite.s:525
    sprite.o                  sprite.s:525
    sprite.o                  sprite.s:525
asrax4 (asrax4.o):
    sprite.o                  sprite.s:525
    sprite.o                  sprite.s:525
    sprite.o                  sprite.s:525
axlong (axlong.o):
    _printf.o                 common/_printf.s:11
axulong (axlong.o):
    mktime.o                  ../libwrk/cx16/mktime.s:618
    _printf.o                 common/_printf.s:11
callmain (callmain.o):
    crt0.o                    cx16/crt0.s:9
ctypemaskdirect (ctypemask.o):
    strlower.o                common/strlower.s:14
cursor (_cursor.o):
    cgetc.o                   cx16/cgetc.s:10
decax1 (decax1.o):
    mktime.o                  ../libwrk/cx16/mktime.s:618
decaxy (decaxy.o):
    mktime.o                  ../libwrk/cx16/mktime.s:618
decsp1 (decsp1.o):
    time.o                    common/time.s:9
    main.o                    main.s:678
decsp3 (decsp3.o):
    calendar.o                calendar.s:378
decsp4 (decsp4.o):
    mktime.o                  ../libwrk/cx16/mktime.s:618
    sprintf.o                 common/sprintf.s:8
    lpush.o                   runtime/lpush.s:12
    map.o                     map.s:608
    calendar.o                calendar.s:378
decsp6 (decsp6.o):
    _printf.o                 common/_printf.s:11
donelib (condes.o):
    crt0.o                    cx16/crt0.s:8
getlop (ludiv.o):
    lumod.o                   runtime/lumod.s:9
gotoxy (gotoxy.o):
    cputc.o                   cx16/cputc.s:11
    cputs.o                   conio/cputs.s:9
incax2 (incax2.o):
    sprite.o                  sprite.s:525
    sprite.o                  sprite.s:525
incax3 (incax3.o):
    sprite.o                  sprite.s:525
incax4 (incaxy.o):
    mktime.o                  ../libwrk/cx16/mktime.s:618
    sprite.o                  sprite.s:525
incax5 (incax5.o):
    sprite.o                  sprite.s:525
incax6 (incax6.o):
    sprite.o                  sprite.s:525
    sprite.o                  sprite.s:525
incax7 (incax7.o):
    sprite.o                  sprite.s:525
incaxy (incaxy.o):
    incax7.o                  runtime/incax7.s:8
    incax6.o                  runtime/incax6.s:8
    incax5.o                  runtime/incax5.s:8
    incax3.o                  runtime/incax3.s:8
    PSG.o                     PSG.s:160
    map.o                     map.s:608
    map.o                     map.s:608
incsp1 (incsp1.o):
    gettime.o                 cx16/gettime.s:10
    map.o                     map.s:608
    map.o                     map.s:608
    map.o                     map.s:608
    map.o                     map.s:608
    main.o                    main.s:678
incsp2 (incsp2.o):
    vsnprintf.o               common/vsnprintf.s:9
    staxspi.o                 runtime/staxspi.s:9
    mktime.o                  ../libwrk/cx16/mktime.s:618
    popptr1.o                 runtime/popptr1.s:8
    PSG.o                     PSG.s:160
    sprite.o                  sprite.s:525
    sprite.o                  sprite.s:525
incsp3 (incsp3.o):
    calendar.o                calendar.s:378
    sprite.o                  sprite.s:525
    sprite.o                  sprite.s:525
    sprite.o                  sprite.s:525
incsp4 (incsp4.o):
    PSG.o                     PSG.s:160
    map.o                     map.s:608
    calendar.o                calendar.s:378
    main.o                    main.s:678
incsp5 (incsp5.o):
    sprite.o                  sprite.s:525
incsp6 (incsp6.o):
    vsnprintf.o               common/vsnprintf.s:9
initlib (condes.o):
    crt0.o                    cx16/crt0.s:8
ldaidx (ldai.o):
    sprite.o                  sprite.s:525
    sprite.o                  sprite.s:525
ldax0sp (ldaxsp.o):
    mktime.o                  ../libwrk/cx16/mktime.s:618
    PSG.o                     PSG.s:160
    PSG.o                     PSG.s:160
    map.o                     map.s:608
    sprite.o                  sprite.s:525
    sprite.o                  sprite.s:525
    sprite.o                  sprite.s:525
    sprite.o                  sprite.s:525
    sprite.o                  sprite.s:525
ldaxi (ldaxi.o):
    mktime.o                  ../libwrk/cx16/mktime.s:618
    PSG.o                     PSG.s:160
    PSG.o                     PSG.s:160
    sprite.o                  sprite.s:525
    sprite.o                  sprite.s:525
    sprite.o                  sprite.s:525
    sprite.o                  sprite.s:525
ldaxidx (ldaxi.o):
    PSG.o                     PSG.s:160
    sprite.o                  sprite.s:525
    sprite.o                  sprite.s:525
    sprite.o                  sprite.s:525
ldaxysp (ldaxsp.o):
    vsnprintf.o               common/vsnprintf.s:9
    mktime.o                  ../libwrk/cx16/mktime.s:618
    PSG.o                     PSG.s:160
    map.o                     map.s:608
    map.o                     map.s:608
    sprite.o                  sprite.s:525
    main.o                    main.s:678
ldeaxi (ldeaxi.o):
    time.o                    common/time.s:9
load_jiffy (tmcommon.o):
    gettime.o                 cx16/gettime.s:11
mul8x16 (mul8.o):
    mul.o                     runtime/mul.s:8
mul8x16a (mul8.o):
    mul.o                     runtime/mul.s:8
negax (negabs.o):
    divt.o                    common/divt.s:17
    shelp.o                   runtime/shelp.s:11
    mod.o                     runtime/mod.s:11
    div.o                     runtime/div.s:11
    main.o                    main.s:678
negeax (lneg.o):
    ltoa.o                    common/ltoa.s:9
plot (cputc.o):
    gotoxy.o                  cx16/gotoxy.s:9
popa (popa.o):
    gotoxy.o                  cx16/gotoxy.s:9
    c_setlfs.o                cbm/c_setlfs.s:12
    c_load.o                  cbm/c_load.s:11
popax (incsp2.o):
    memcpy.o                  common/memcpy.s:14
    vsnprintf.o               common/vsnprintf.s:9
    ltoa.o                    common/ltoa.s:9
    _printf.o                 common/_printf.s:11
    vcprintf.o                conio/vcprintf.s:8
    shelp.o                   runtime/shelp.s:11
popptr1 (popptr1.o):
    memcpy.o                  common/memcpy.s:14
    umod.o                    runtime/umod.s:8
    steaxspi.o                runtime/steaxspi.s:9
    mul.o                     runtime/mul.s:9
    ltoa.o                    common/ltoa.s:9
    vcprintf.o                conio/vcprintf.s:8
    udiv.o                    runtime/udiv.s:9
    mul8.o                    runtime/mul8.s:9
popsargsudiv16 (shelp.o):
    mod.o                     runtime/mod.s:11
    div.o                     runtime/div.s:11
ptr1 (zeropage.o):
    memcpy.o                  common/memcpy.s:15
    vsnprintf.o               common/vsnprintf.s:11
    strlower.o                common/strlower.s:13
    steaxspi.o                runtime/steaxspi.s:10
    staxspi.o                 runtime/staxspi.s:10
    mul.o                     runtime/mul.s:10
    mktime.o                  ../libwrk/cx16/mktime.s:11
    ltoa.o                    common/ltoa.s:11
    lmul.o                    runtime/lmul.s:10
    ldeaxi.o                  runtime/ldeaxi.s:8
    _printf.o                 /Users/rje/git/cc65/asminc/zeropage.inc:12
    zerobss.o                 common/zerobss.s:9
    vcprintf.o                conio/vcprintf.s:10
    udiv.o                    runtime/udiv.s:10
    time.o                    common/time.s:10
    sprintf.o                 common/sprintf.s:9
    shelp.o                   runtime/shelp.s:12
    pushw.o                   runtime/pushw.s:9
    popptr1.o                 runtime/popptr1.s:9
    mul8.o                    runtime/mul8.s:10
    ludiv.o                   runtime/ludiv.s:10
    ldaxi.o                   runtime/ldaxi.s:8
    ldai.o                    runtime/ldai.s:8
    div.o                     runtime/div.s:12
    cputs.o                   conio/cputs.s:10
    cprintf.o                 conio/cprintf.s:9
    c_setnam.o                cbm/c_setnam.s:10
    c_load.o                  cbm/c_load.s:12
    PSG.o                     PSG.s:11
    map.o                     map.s:11
    sprite.o                  sprite.s:11
    main.o                    main.s:11
ptr2 (zeropage.o):
    memcpy.o                  common/memcpy.s:15
    strlower.o                common/strlower.s:13
    strlen.o                  common/strlen.s:12
    ltoa.o                    common/ltoa.s:11
    _printf.o                 /Users/rje/git/cc65/asminc/zeropage.inc:12
    vcprintf.o                conio/vcprintf.s:10
    lumod.o                   runtime/lumod.s:10
    ludiv.o                   runtime/ludiv.s:10
    sprite.o                  sprite.s:11
ptr3 (zeropage.o):
    memcpy.o                  common/memcpy.s:15
    ltoa.o                    common/ltoa.s:11
    lmul.o                    runtime/lmul.s:10
    vcprintf.o                conio/vcprintf.s:10
    ludiv.o                   runtime/ludiv.s:10
ptr4 (zeropage.o):
    umod.o                    runtime/umod.s:9
    mul.o                     runtime/mul.s:10
    lmul.o                    runtime/lmul.s:10
    udiv.o                    runtime/udiv.s:10
    shelp.o                   runtime/shelp.s:12
    mul8.o                    runtime/mul8.s:10
    ludiv.o                   runtime/ludiv.s:10
push1 (push1.o):
    _printf.o                 common/_printf.s:11
pusha (pusha.o):
    map.o                     map.s:608
    map.o                     map.s:608
    map.o                     map.s:608
    map.o                     map.s:608
    map.o                     map.s:608
    map.o                     map.s:608
    sprite.o                  sprite.s:525
    main.o                    main.s:678
    main.o                    main.s:678
    main.o                    main.s:678
    main.o                    main.s:678
pusha0 (pushax.o):
    push1.o                   runtime/push1.s:8
    map.o                     map.s:608
    calendar.o                calendar.s:378
pushax (pushax.o):
    mktime.o                  ../libwrk/cx16/mktime.s:618
    mktime.o                  ../libwrk/cx16/mktime.s:618
    gettime.o                 cx16/gettime.s:10
    callmain.o                runtime/callmain.s:11
    _printf.o                 common/_printf.s:11
    vcprintf.o                conio/vcprintf.s:8
    pushw.o                   runtime/pushw.s:8
    cprintf.o                 conio/cprintf.s:8
    PSG.o                     PSG.s:160
    PSG.o                     PSG.s:160
    map.o                     map.s:608
    calendar.o                calendar.s:378
    calendar.o                calendar.s:378
    sprite.o                  sprite.s:525
    sprite.o                  sprite.s:525
    sprite.o                  sprite.s:525
    sprite.o                  sprite.s:525
    sprite.o                  sprite.s:525
    main.o                    main.s:678
    main.o                    main.s:678
    main.o                    main.s:678
    main.o                    main.s:678
    main.o                    main.s:678
pusheax (lpush.o):
    mktime.o                  ../libwrk/cx16/mktime.s:618
    gettime.o                 cx16/gettime.s:10
    _printf.o                 common/_printf.s:11
    calendar.o                calendar.s:378
    calendar.o                calendar.s:378
pushw (pushw.o):
    calendar.o                calendar.s:378
pushw0sp (pushwsp.o):
    mktime.o                  ../libwrk/cx16/mktime.s:618
    vsprintf.o                common/vsprintf.s:8
pushwysp (pushwsp.o):
    map.o                     map.s:608
regbank (zeropage.o):
    regswap2.o                runtime/regswap2.s:8
    mktime.o                  ../libwrk/cx16/mktime.s:10
    _printf.o                 /Users/rje/git/cc65/asminc/zeropage.inc:14
regswap2 (regswap2.o):
    mktime.o                  ../libwrk/cx16/mktime.s:618
return0 (return0.o):
    gettime.o                 cx16/gettime.s:10
shlax3 (aslax3.o):
    sprite.o                  sprite.s:525
shlax4 (aslax4.o):
    PSG.o                     PSG.s:160
shrax1 (shrax1.o):
    sprite.o                  sprite.s:525
    sprite.o                  sprite.s:525
    sprite.o                  sprite.s:525
shrax2 (shrax2.o):
    mktime.o                  ../libwrk/cx16/mktime.s:618
    PSG.o                     PSG.s:160
shrax4 (shrax4.o):
    PSG.o                     PSG.s:160
    sprite.o                  sprite.s:525
    sprite.o                  sprite.s:525
    sprite.o                  sprite.s:525
shreax4 (shreax4.o):
    calendar.o                calendar.s:378
sp (zeropage.o):
    memcpy.o                  common/memcpy.s:15
    lsub.o                    runtime/lsub.s:12
    ladd.o                    runtime/ladd.s:9
    vsnprintf.o               common/vsnprintf.s:11
    staxspi.o                 runtime/staxspi.s:10
    regswap2.o                runtime/regswap2.s:8
    mktime.o                  ../libwrk/cx16/mktime.s:10
    lmul.o                    runtime/lmul.s:10
    decsp6.o                  runtime/decsp6.s:8
    _printf.o                 /Users/rje/git/cc65/asminc/zeropage.inc:11
    vcprintf.o                conio/vcprintf.s:10
    subysp.o                  runtime/subysp.s:9
    staxsp.o                  runtime/staxsp.s:8
    sprintf.o                 common/sprintf.s:9
    pushwsp.o                 runtime/pushwsp.s:8
    pushax.o                  runtime/pushax.s:8
    pusha.o                   runtime/pusha.s:8
    popptr1.o                 runtime/popptr1.s:9
    popa.o                    runtime/popa.s:8
    ludiv.o                   runtime/ludiv.s:10
    lpush.o                   runtime/lpush.s:13
    ldaxsp.o                  runtime/ldaxsp.s:8
    incsp2.o                  runtime/incsp2.s:8
    incsp1.o                  runtime/incsp1.s:8
    icmp.o                    runtime/icmp.s:9
    decsp4.o                  runtime/decsp4.s:8
    decsp3.o                  runtime/decsp3.s:8
    decsp1.o                  runtime/decsp1.s:8
    crt0.o                    /Users/rje/git/cc65/asminc/zeropage.inc:11
    cprintf.o                 conio/cprintf.s:9
    addysp.o                  runtime/addysp.s:8
    addeqsp.o                 runtime/addeqsp.s:8
    add.o                     runtime/add.s:12
    map.o                     map.s:10
    calendar.o                calendar.s:10
    sprite.o                  sprite.s:10
    main.o                    main.s:10
sreg (zeropage.o):
    lsub.o                    runtime/lsub.s:12
    lneg.o                    runtime/lneg.s:11
    ladd.o                    runtime/ladd.s:9
    divt.o                    common/divt.s:18
    umod.o                    runtime/umod.s:9
    tmcommon.o                cx16/tmcommon.s:9
    steaxspi.o                runtime/steaxspi.s:10
    mktime.o                  ../libwrk/cx16/mktime.s:10
    ltoa.o                    common/ltoa.s:11
    lmul.o                    runtime/lmul.s:10
    ldeaxi.o                  runtime/ldeaxi.s:8
    axlong.o                  runtime/axlong.s:9
    _printf.o                 /Users/rje/git/cc65/asminc/zeropage.inc:11
    udiv.o                    runtime/udiv.s:10
    time.o                    common/time.s:10
    shreax4.o                 runtime/shreax4.s:8
    mod.o                     runtime/mod.s:12
    lumod.o                   runtime/lumod.s:10
    ludiv.o                   runtime/ludiv.s:10
    lpush.o                   runtime/lpush.s:13
    icmp.o                    runtime/icmp.s:9
    PSG.o                     PSG.s:10
    calendar.o                calendar.s:10
    sprite.o                  sprite.s:10
stax0sp (staxsp.o):
    mktime.o                  ../libwrk/cx16/mktime.s:618
    map.o                     map.s:608
staxspidx (staxspi.o):
    mktime.o                  ../libwrk/cx16/mktime.s:618
staxysp (staxsp.o):
    mktime.o                  ../libwrk/cx16/mktime.s:618
    vsprintf.o                common/vsprintf.s:8
    map.o                     map.s:608
    map.o                     map.s:608
steaxspidx (steaxspi.o):
    gettime.o                 cx16/gettime.s:10
subysp (subysp.o):
    map.o                     map.s:608
tmp1 (zeropage.o):
    ladd.o                    runtime/ladd.s:9
    divt.o                    common/divt.s:18
    decaxy.o                  runtime/decaxy.s:8
    steaxspi.o                runtime/steaxspi.s:10
    staxspi.o                 runtime/staxspi.s:10
    mul.o                     runtime/mul.s:10
    mktime.o                  ../libwrk/cx16/mktime.s:11
    ltoa.o                    common/ltoa.s:11
    _printf.o                 /Users/rje/git/cc65/asminc/zeropage.inc:13
    vcprintf.o                conio/vcprintf.s:10
    time.o                    common/time.s:10
    shreax4.o                 runtime/shreax4.s:8
    shrax4.o                  runtime/shrax4.s:8
    shrax2.o                  runtime/shrax2.s:8
    shrax1.o                  runtime/shrax1.s:8
    shelp.o                   runtime/shelp.s:12
    mod.o                     runtime/mod.s:12
    incaxy.o                  runtime/incaxy.s:8
    div.o                     runtime/div.s:12
    cputs.o                   conio/cputs.s:10
    color.o                   cx16/color.s:11
    c_setlfs.o                cbm/c_setlfs.s:13
    asrax4.o                  runtime/asrax4.s:9
    asrax1.o                  runtime/asrax1.s:8
    aslax4.o                  runtime/aslax4.s:8
    aslax3.o                  runtime/aslax3.s:8
    aslax1.o                  runtime/aslax1.s:8
tmp2 (zeropage.o):
    steaxspi.o                runtime/steaxspi.s:10
    lmul.o                    runtime/lmul.s:10
    time.o                    common/time.s:10
    shelp.o                   runtime/shelp.s:12
    div.o                     runtime/div.s:12
tmp3 (zeropage.o):
    steaxspi.o                runtime/steaxspi.s:10
    lmul.o                    runtime/lmul.s:10
    lumod.o                   runtime/lumod.s:10
    ludiv.o                   runtime/ludiv.s:10
tmp4 (zeropage.o):
    lmul.o                    runtime/lmul.s:10
    lumod.o                   runtime/lumod.s:10
    ludiv.o                   runtime/ludiv.s:10
tosaddax (add.o):
    map.o                     map.s:608
tosaddeax (ladd.o):
    mktime.o                  ../libwrk/cx16/mktime.s:618
tosdiva0 (div.o):
    map.o                     map.s:608
tosdivax (div.o):
    divt.o                    common/divt.s:17
tosicmp (icmp.o):
    mktime.o                  ../libwrk/cx16/mktime.s:618
    main.o                    main.s:678
tosmoda0 (mod.o):
    map.o                     map.s:608
    main.o                    main.s:678
tosmodax (mod.o):
    main.o                    main.s:678
tosmul0ax (lmul.o):
    gettime.o                 cx16/gettime.s:10
tosmula0 (mul8.o):
    map.o                     map.s:608
tossubeax (lsub.o):
    mktime.o                  ../libwrk/cx16/mktime.s:618
tosudiv0ax (ludiv.o):
    calendar.o                calendar.s:378
    calendar.o                calendar.s:378
tosudiveax (ludiv.o):
    calendar.o                calendar.s:378
tosumod0ax (lumod.o):
    calendar.o                calendar.s:378
    calendar.o                calendar.s:378
tosumoda0 (umod.o):
    mktime.o                  ../libwrk/cx16/mktime.s:618
    mktime.o                  ../libwrk/cx16/mktime.s:618
tosumodax (umod.o):
    mktime.o                  ../libwrk/cx16/mktime.s:618
tosumul0ax (lmul.o):
    mktime.o                  ../libwrk/cx16/mktime.s:618
tosumula0 (mul8.o):
    mktime.o                  ../libwrk/cx16/mktime.s:618
tosumulax (mul.o):
    mktime.o                  ../libwrk/cx16/mktime.s:618
tosumuleax (lmul.o):
    mktime.o                  ../libwrk/cx16/mktime.s:618
udiv16 (udiv.o):
    umod.o                    runtime/umod.s:8
    shelp.o                   runtime/shelp.s:11
udiv32 (ludiv.o):
    lumod.o                   runtime/lumod.s:9
vsnprintf (vsnprintf.o):
    vsprintf.o                common/vsprintf.s:9
zerobss (zerobss.o):
    crt0.o                    cx16/crt0.s:9

